target datalayout = "e-m:e-p270:32:32-p271:32:32-p272:64:64-i64:64-i128:128-f80:128-n8:16:32:64-S128"
target triple = "x86_64-pc-linux-gnu"

%struct.AVCodecContext = type { ptr, i32, i32, ptr, i32, i32, ptr, ptr, ptr, i64, i32, i32, ptr, i32, %struct.AVRational, %struct.AVRational, %struct.AVRational, i32, i32, i32, i32, i32, %struct.AVRational, i32, i32, i32, i32, i32, i32, i32, i32, i32, i32, i32, ptr, ptr, i32, float, float, float, float, float, float, float, float, float, i32, i32, i32, i32, i32, i32, i32, i32, i32, i32, i32, i32, ptr, ptr, ptr, i32, i32, i32, i32, i32, i32, i32, i32, i32, i32, %struct.AVChannelLayout, i32, i32, i32, i32, i32, i32, i32, i32, ptr, i32, i32, i32, float, float, i32, i32, i32, i32, i32, ptr, i64, i64, float, float, i32, i32, ptr, ptr, i32, i32, i32, i32, i32, ptr, ptr, ptr, ptr, i32, i32, [8 x i64], i32, i32, i32, i32, i32, i32, i32, ptr, ptr, i32, i32, i32, i32, i32, i32, i32, i32, i32, i32, ptr, ptr, i32, i32, ptr, ptr, ptr, ptr, i32, i32, i64, i32, i32, i64, ptr, i64, ptr, i32, ptr, i32 }
%struct.AVRational = type { i32, i32 }
%struct.AVChannelLayout = type { i32, i32, %union.anon.1, ptr }
%union.anon.1 = type { i64 }
%struct.VAAPIEncodeContext = type { %struct.FFHWBaseEncodeContext, ptr, i32, i32, i32, i32, i32, i32, ptr, ptr, i32, i32, i32, i32, i32, i32, [4 x %struct._VAConfigAttrib], i32, i32, i32, ptr, ptr, [4 x i32], [4 x ptr], [4 x i64], i32, %struct._VAEncMiscParameterRateControl, %struct._VAEncMiscParameterHRD, %struct._VAEncMiscParameterFrameRate, %struct._VAEncMiscParameterBufferMaxFrameSize, %struct._VAEncMiscParameterBufferQualityLevel, ptr, ptr, i32, i32, i32, i32, i32, i32, [20 x i32], [22 x i32], [21 x i32], [23 x i32], i32, i32, ptr, i32, i32 }
%struct.FFHWBaseEncodeContext = type { ptr, ptr, ptr, i32, i32, i32, i32, i32, i32, ptr, ptr, ptr, ptr, ptr, ptr, ptr, ptr, [2 x ptr], i32, i64, i64, i64, i64, i64, i64, i64, [112 x i64], i32, i32, i32, i32, i32, i32, i32, i32, i32, i32, i32, i32, i32, i32, i32, i32, ptr, i32, ptr, i32, ptr }
%struct._VAConfigAttrib = type { i32, i32 }
%struct._VAEncMiscParameterRateControl = type { i32, i32, i32, i32, i32, i32, %union.anon.2, i32, i32, i32, i32, [4 x i32] }
%union.anon.2 = type { %struct.anon }
%struct.anon = type { i32 }
%struct._VAEncMiscParameterHRD = type { i32, i32, [4 x i32] }
%struct._VAEncMiscParameterFrameRate = type { i32, %union.anon.3, [4 x i32] }
%union.anon.3 = type { %struct.anon.4 }
%struct.anon.4 = type { i32 }
%struct._VAEncMiscParameterBufferMaxFrameSize = type { i32, i32, [4 x i32] }
%struct._VAEncMiscParameterBufferQualityLevel = type { i32, [4 x i32] }
%struct.VAAPIEncodeH265Context = type { %struct.VAAPIEncodeContext, i32, i32, i32, i32, i32, i32, i32, i32, i32, i32, i32, %struct.FFHWBaseEncodeH265, %struct.FFHWBaseEncodeH265Opts, %struct.H265RawAUD, %struct.H265RawSlice, %struct.SEIRawMasteringDisplayColourVolume, %struct.SEIRawContentLightLevelInfo, %struct.SEIRawUserDataRegistered, ptr, ptr, %struct.CodedBitstreamFragment, i32, i32 }
%struct.FFHWBaseEncodeH265 = type { %struct.H265RawVPS, %struct.H265RawSPS, %struct.H265RawPPS, i32 }
%struct.H265RawVPS = type { %struct.H265RawNALUnitHeader, i8, i8, i8, i8, i8, i8, %struct.H265RawProfileTierLevel, i8, [7 x i8], [7 x i8], [7 x i32], i8, i16, [1024 x [63 x i8]], i8, i32, i32, i8, i32, i16, [1024 x i16], [1024 x i8], [1024 x %struct.H265RawHRDParameters], i8, %struct.H265RawExtensionData }
%struct.H265RawNALUnitHeader = type { i8, i8, i8 }
%struct.H265RawProfileTierLevel = type { i8, i8, i8, [32 x i8], i8, i8, i8, i8, i8, i8, i8, i8, i8, i8, i8, i8, i8, i8, i8, i8, [7 x i8], [7 x i8], [7 x i8], [7 x i8], [7 x i8], [7 x [32 x i8]], [7 x i8], [7 x i8], [7 x i8], [7 x i8], [7 x i8], [7 x i8], [7 x i8], [7 x i8], [7 x i8], [7 x i8], [7 x i8], [7 x i8], [7 x i8], [7 x i8], [7 x i8], [7 x i8] }
%struct.H265RawHRDParameters = type { i8, i8, i8, i8, i8, i8, i8, i8, i8, i8, i8, i8, i8, [7 x i8], [7 x i8], [7 x i16], [7 x i8], [7 x i8], [7 x %struct.H265RawSubLayerHRDParameters], [7 x %struct.H265RawSubLayerHRDParameters] }
%struct.H265RawSubLayerHRDParameters = type { [32 x i32], [32 x i32], [32 x i32], [32 x i32], [32 x i8] }
%struct.H265RawExtensionData = type { ptr, ptr, i64 }
%struct.H265RawSPS = type { %struct.H265RawNALUnitHeader, i8, i8, i8, i8, %struct.H265RawProfileTierLevel, i8, i8, i8, i8, i8, i16, i16, i8, i16, i16, i16, i16, i8, i8, i8, i8, [7 x i8], [7 x i8], [7 x i32], i8, i8, i8, i8, i8, i8, i8, i8, i8, i8, %struct.H265RawScalingList, i8, i8, i8, i8, i8, i8, i8, i8, i8, [64 x %struct.H265RawSTRefPicSet], i8, i8, [32 x i16], [32 x i8], i8, i8, i8, %struct.H265RawVUI, i8, i8, i8, i8, i8, i8, %struct.H265RawExtensionData, i8, i8, i8, i8, i8, i8, i8, i8, i8, i8, i8, i8, i8, i8, i8, [3 x [128 x i16]], i8, i8, i8 }
%struct.H265RawScalingList = type { [4 x [6 x i8]], [4 x [6 x i8]], [4 x [6 x i16]], [4 x [6 x [64 x i8]]] }
%struct.H265RawSTRefPicSet = type { i8, i8, i8, i16, [16 x i8], [16 x i8], i8, i8, [16 x i16], [16 x i8], [16 x i16], [16 x i8] }
%struct.H265RawVUI = type { i8, i8, i16, i16, i8, i8, i8, i8, i8, i8, i8, i8, i8, i8, i8, i8, i8, i8, i8, i8, i16, i16, i16, i16, i8, i32, i32, i8, i32, i8, %struct.H265RawHRDParameters, i8, i8, i8, i8, i16, i8, i8, i8, i8 }
%struct.H265RawPPS = type { %struct.H265RawNALUnitHeader, i8, i8, i8, i8, i8, i8, i8, i8, i8, i8, i8, i8, i8, i8, i8, i8, i8, i8, i8, i8, i8, i8, i8, i8, i8, [20 x i16], [22 x i16], i8, i8, i8, i8, i8, i8, i8, i8, %struct.H265RawScalingList, i8, i8, i8, i8, i8, i8, i8, i8, i8, %struct.H265RawExtensionData, i8, i8, i8, i8, i8, [6 x i8], [6 x i8], i8, i8, i8, i8, i8, i8, i8, i8, i8, i8, i8, i8, i8, [3 x [128 x i16]], i8, i8, i8, i8, [64 x i8], [64 x i8], [64 x i16], [64 x i16], [64 x i16], [64 x i16], [64 x i8], [64 x i16], [64 x i16], [64 x i16], [64 x i16], [64 x i8], [64 x i8], [64 x i8], [64 x i8], [64 x i8], i8, i8, [62 x i8], i8, i8, i8, i8, i8, i8, i8, i8, i16, i16, [2 x i8], [12 x [2 x [2 x [4 x i8]]]], [12 x [2 x [2 x [4 x [3 x i8]]]]], [12 x [2 x [2 x [4 x [3 x i32]]]]], [12 x [2 x [2 x [4 x [3 x i8]]]]] }
%struct.FFHWBaseEncodeH265Opts = type { i32, i32, i32, i32, i32, i32, i32, i32, [22 x i32], [22 x i32] }
%struct.H265RawAUD = type { %struct.H265RawNALUnitHeader, i8 }
%struct.H265RawSlice = type { %struct.H265RawSliceHeader, ptr, ptr, i64, i32 }
%struct.H265RawSliceHeader = type { %struct.H265RawNALUnitHeader, i8, i8, i8, i8, i16, [8 x i8], i8, i8, i8, i16, i8, %struct.H265RawSTRefPicSet, i8, i8, i8, [16 x i8], [16 x i8], [16 x i8], [16 x i8], [16 x i32], i8, i8, i8, i8, i8, i8, i8, [16 x i8], i8, [16 x i8], i8, i8, i8, i8, i8, i8, [16 x i8], [16 x i8], [16 x i8], [16 x i16], [16 x [2 x i8]], [16 x [2 x i16]], [16 x i8], [16 x i8], [16 x i8], [16 x i16], [16 x [2 x i8]], [16 x [2 x i16]], i8, i8, i8, i8, i8, i8, i8, i8, i8, i8, i8, i8, i8, i8, i16, i8, [2700 x i32], i16, [256 x i8] }
%struct.SEIRawMasteringDisplayColourVolume = type { [3 x i16], [3 x i16], i16, i16, i32, i32 }
%struct.SEIRawContentLightLevelInfo = type { i16, i16 }
%struct.SEIRawUserDataRegistered = type { i8, i8, ptr, i64 }
%struct.CodedBitstreamFragment = type { ptr, i64, i64, ptr, i32, i32, ptr }

; Function Attrs: cold nounwind optsize uwtable
define internal i32 @vaapi_encode_h265_close(ptr noundef %0) #0 {
  %2 = alloca ptr, align 8
  %3 = alloca ptr, align 8
  store ptr %0, ptr %2, align 8, !tbaa !4
  call void @llvm.lifetime.start.p0(i64 8, ptr %3) #10
  %4 = load ptr, ptr %2, align 8, !tbaa !4
  %5 = getelementptr inbounds nuw %struct.AVCodecContext, ptr %4, i32 0, i32 6
  %6 = load ptr, ptr %5, align 8, !tbaa !9
  store ptr %6, ptr %3, align 8, !tbaa !31
  %7 = load ptr, ptr %3, align 8, !tbaa !31
  %8 = getelementptr inbounds nuw %struct.VAAPIEncodeH265Context, ptr %7, i32 0, i32 21
  call void @ff_cbs_fragment_free(ptr noundef %8)
  %9 = load ptr, ptr %3, align 8, !tbaa !31
  %10 = getelementptr inbounds nuw %struct.VAAPIEncodeH265Context, ptr %9, i32 0, i32 20
  call void @ff_cbs_close(ptr noundef %10)
  %11 = load ptr, ptr %3, align 8, !tbaa !31
  %12 = getelementptr inbounds nuw %struct.VAAPIEncodeH265Context, ptr %11, i32 0, i32 19
  call void @av_freep(ptr noundef %12)
  %13 = load ptr, ptr %2, align 8, !tbaa !4
  %14 = call i32 @ff_vaapi_encode_close(ptr noundef %13)
  call void @llvm.lifetime.end.p0(i64 8, ptr %3) #10
  ret i32 %14
}